target datalayout = "e-m:e-p270:32:32-p271:32:32-p272:64:64-i64:64-i128:128-f80:128-n8:16:32:64-S128"
target triple = "x86_64-pc-linux-gnu"

@rb_eArgError = external global i64, align 8
@.str.139 = private unnamed_addr constant [20 x i8] c"can't unfreeze %li\0B\00", align 1

; Function Attrs: nounwind sspstrong uwtable
define internal i64 @immutable_obj_clone(i64 noundef %0, i64 noundef %1) #0 {
  %3 = alloca i64, align 8
  %4 = alloca i64, align 8
  store i64 %0, ptr %3, align 8, !tbaa !11
  store i64 %1, ptr %4, align 8, !tbaa !11
  %5 = load i64, ptr %4, align 8, !tbaa !11
  %6 = icmp eq i64 %5, 0
  br i1 %6, label %7, label %11

7:                                                ; preds = %2
  %8 = load i64, ptr @rb_eArgError, align 8, !tbaa !11
  %9 = load i64, ptr %3, align 8, !tbaa !11
  %10 = call i64 @rb_obj_class(i64 noundef %9)
  call void (i64, ptr, ...) @rb_raise(i64 noundef %8, ptr noundef @.str.139, i64 noundef %10) #31
  unreachable

11:                                               ; preds = %2
  %12 = load i64, ptr %3, align 8, !tbaa !11
  ret i64 %12
}

; Function Attrs: nounwind sspstrong uwtable
define hidden i64 @rb_immutable_obj_clone(i32 noundef %0, ptr noundef %1, i64 noundef %2) #0 {
  %4 = alloca i32, align 4
  %5 = alloca ptr, align 8
  %6 = alloca i64, align 8
  %7 = alloca i64, align 8
  store i32 %0, ptr %4, align 4, !tbaa !7
  store ptr %1, ptr %5, align 8, !tbaa !36
  store i64 %2, ptr %6, align 8, !tbaa !11
  call void @llvm.lifetime.start.p0(i64 8, ptr %7) #28
  %8 = load i32, ptr %4, align 4, !tbaa !7
  %9 = load ptr, ptr %5, align 8, !tbaa !36
  %10 = call i64 @rb_get_freeze_opt(i32 noundef %8, ptr noundef %9)
  store i64 %10, ptr %7, align 8, !tbaa !11
  %11 = load i64, ptr %6, align 8, !tbaa !11
  %12 = load i64, ptr %7, align 8, !tbaa !11
  %13 = call i64 @immutable_obj_clone(i64 noundef %11, i64 noundef %12)
  call void @llvm.lifetime.end.p0(i64 8, ptr %7) #28
  ret i64 %13
}