; Function Attrs: nounwind sspstrong uwtable
define hidden noundef i64 @rb_immutable_obj_clone(i32 noundef %0, ptr noundef readonly captures(none) %1, i64 noundef returned %2) local_unnamed_addr #2 {
  %4 = tail call i64 @rb_get_freeze_opt(i32 noundef %0, ptr noundef %1)
  %5 = icmp eq i64 %4, 0
  br i1 %5, label %6, label %immutable_obj_clone.exit

6:                                                ; preds = %3
  %7 = load i64, ptr @rb_eArgError, align 8, !tbaa !7
  %8 = tail call i64 @rb_obj_class(i64 noundef %2)
  tail call void (i64, ptr, ...) @rb_raise(i64 noundef %7, ptr noundef nonnull @.str.139, i64 noundef %8) #24
  unreachable

immutable_obj_clone.exit:                         ; preds = %3
  ret i64 %2
}